target datalayout = "e-m:e-p270:32:32-p271:32:32-p272:64:64-i64:64-i128:128-f80:128-n8:16:32:64-S128"
target triple = "x86_64-pc-linux-gnu"

%"class.cvc5::internal::SynthResult" = type { i32, i32 }

; Function Attrs: mustprogress nounwind uwtable
define hidden noundef zeroext i1 @_ZNK4cvc58internal11SynthResulteqERKS1_(ptr noundef nonnull align 4 dereferenceable(8) %0, ptr noundef nonnull align 4 dereferenceable(8) %1) #0 align 2 {
  %3 = alloca ptr, align 8
  %4 = alloca ptr, align 8
  store ptr %0, ptr %3, align 8, !tbaa !3
  store ptr %1, ptr %4, align 8, !tbaa !3
  %5 = load ptr, ptr %3, align 8
  %6 = getelementptr inbounds nuw %"class.cvc5::internal::SynthResult", ptr %5, i32 0, i32 0
  %7 = load i32, ptr %6, align 4, !tbaa !8
  %8 = load ptr, ptr %4, align 8, !tbaa !3
  %9 = getelementptr inbounds nuw %"class.cvc5::internal::SynthResult", ptr %8, i32 0, i32 0
  %10 = load i32, ptr %9, align 4, !tbaa !8
  %11 = icmp eq i32 %7, %10
  br i1 %11, label %12, label %25

12:                                               ; preds = %2
  %13 = getelementptr inbounds nuw %"class.cvc5::internal::SynthResult", ptr %5, i32 0, i32 0
  %14 = load i32, ptr %13, align 4, !tbaa !8
  %15 = icmp ne i32 %14, 3
  br i1 %15, label %23, label %16

16:                                               ; preds = %12
  %17 = getelementptr inbounds nuw %"class.cvc5::internal::SynthResult", ptr %5, i32 0, i32 1
  %18 = load i32, ptr %17, align 4, !tbaa !12
  %19 = load ptr, ptr %4, align 8, !tbaa !3
  %20 = getelementptr inbounds nuw %"class.cvc5::internal::SynthResult", ptr %19, i32 0, i32 1
  %21 = load i32, ptr %20, align 4, !tbaa !12
  %22 = icmp eq i32 %18, %21
  br label %23

23:                                               ; preds = %16, %12
  %24 = phi i1 [ true, %12 ], [ %22, %16 ]
  br label %25

25:                                               ; preds = %23, %2
  %26 = phi i1 [ false, %2 ], [ %24, %23 ]
  ret i1 %26
}

; Function Attrs: mustprogress nounwind uwtable
define hidden noundef zeroext i1 @_ZNK4cvc58internal11SynthResultneERKS1_(ptr noundef nonnull align 4 dereferenceable(8) %0, ptr noundef nonnull align 4 dereferenceable(8) %1) #0 align 2 {
  %3 = alloca ptr, align 8
  %4 = alloca ptr, align 8
  store ptr %0, ptr %3, align 8, !tbaa !3
  store ptr %1, ptr %4, align 8, !tbaa !3
  %5 = load ptr, ptr %3, align 8
  %6 = load ptr, ptr %4, align 8, !tbaa !3
  %7 = call noundef zeroext i1 @_ZNK4cvc58internal11SynthResulteqERKS1_(ptr noundef nonnull align 4 dereferenceable(8) %5, ptr noundef nonnull align 4 dereferenceable(8) %6)
  %8 = xor i1 %7, true
  ret i1 %8
}