; Function Attrs: mustprogress nofree norecurse nosync nounwind willreturn memory(argmem: read) uwtable
define hidden noundef zeroext i1 @_ZNK4cvc58internal11SynthResultneERKS1_(ptr noundef nonnull readonly align 4 captures(none) dereferenceable(8) %0, ptr noundef nonnull readonly align 4 captures(none) dereferenceable(8) %1) local_unnamed_addr #1 align 2 {
  %3 = load i32, ptr %0, align 4, !tbaa !3
  %4 = load i32, ptr %1, align 4, !tbaa !3
  %5 = icmp eq i32 %3, %4
  br i1 %5, label %6, label %_ZNK4cvc58internal11SynthResulteqERKS1_.exit

6:                                                ; preds = %2
  %.not.i = icmp eq i32 %3, 3
  br i1 %.not.i, label %7, label %_ZNK4cvc58internal11SynthResulteqERKS1_.exit

7:                                                ; preds = %6
  %8 = getelementptr inbounds nuw i8, ptr %0, i64 4
  %9 = load i32, ptr %8, align 4, !tbaa !9
  %10 = getelementptr inbounds nuw i8, ptr %1, i64 4
  %11 = load i32, ptr %10, align 4, !tbaa !9
  %12 = icmp ne i32 %9, %11
  br label %_ZNK4cvc58internal11SynthResulteqERKS1_.exit

_ZNK4cvc58internal11SynthResulteqERKS1_.exit:     ; preds = %2, %6, %7
  %13 = phi i1 [ true, %2 ], [ false, %6 ], [ %12, %7 ]
  ret i1 %13
}